target datalayout = "e-m:e-p270:32:32-p271:32:32-p272:64:64-i64:64-i128:128-f80:128-n8:16:32:64-S128"
target triple = "x86_64-unknown-linux-gnu"

%"class.icu_75::TextTrieMap" = type { ptr, i8, ptr, i32, i32, ptr, i8, ptr }

; Function Attrs: mustprogress uwtable
define noundef signext i8 @_ZN6icu_7511TextTrieMap9growNodesEv(ptr noundef nonnull align 8 dereferenceable(56) %this) #1 align 2 {
entry:
  %retval = alloca i8, align 1
  %this.addr = alloca ptr, align 8
  %newCapacity = alloca i32, align 4
  %newNodes = alloca ptr, align 8
  store ptr %this, ptr %this.addr, align 8
  %this1 = load ptr, ptr %this.addr, align 8
  %fNodesCapacity = getelementptr inbounds %"class.icu_75::TextTrieMap", ptr %this1, i32 0, i32 3
  %0 = load i32, ptr %fNodesCapacity, align 8
  %cmp = icmp eq i32 %0, 65535
  br i1 %cmp, label %if.then, label %if.end

if.then:                                          ; preds = %entry
  store i8 0, ptr %retval, align 1
  br label %return

if.end:                                           ; preds = %entry
  %fNodesCapacity2 = getelementptr inbounds %"class.icu_75::TextTrieMap", ptr %this1, i32 0, i32 3
  %1 = load i32, ptr %fNodesCapacity2, align 8
  %add = add nsw i32 %1, 1000
  store i32 %add, ptr %newCapacity, align 4
  %2 = load i32, ptr %newCapacity, align 4
  %cmp3 = icmp sgt i32 %2, 65535
  br i1 %cmp3, label %if.then4, label %if.end5

if.then4:                                         ; preds = %if.end
  store i32 65535, ptr %newCapacity, align 4
  br label %if.end5

if.end5:                                          ; preds = %if.then4, %if.end
  %3 = load i32, ptr %newCapacity, align 4
  %conv = sext i32 %3 to i64
  %mul = mul i64 %conv, 16
  %call = call noalias ptr @uprv_malloc_75(i64 noundef %mul) #11
  store ptr %call, ptr %newNodes, align 8
  %4 = load ptr, ptr %newNodes, align 8
  %cmp6 = icmp eq ptr %4, null
  br i1 %cmp6, label %if.then7, label %if.end8

if.then7:                                         ; preds = %if.end5
  store i8 0, ptr %retval, align 1
  br label %return

if.end8:                                          ; preds = %if.end5
  br label %do.body

do.body:                                          ; preds = %if.end8
  %5 = load ptr, ptr %newNodes, align 8
  %fNodes = getelementptr inbounds %"class.icu_75::TextTrieMap", ptr %this1, i32 0, i32 2
  %6 = load ptr, ptr %fNodes, align 8
  %fNodesCount = getelementptr inbounds %"class.icu_75::TextTrieMap", ptr %this1, i32 0, i32 4
  %7 = load i32, ptr %fNodesCount, align 4
  %conv9 = sext i32 %7 to i64
  %mul10 = mul i64 %conv9, 16
  call void @llvm.memcpy.p0.p0.i64(ptr align 8 %5, ptr align 8 %6, i64 %mul10, i1 false)
  br label %do.end

do.end:                                           ; preds = %do.body
  %fNodes11 = getelementptr inbounds %"class.icu_75::TextTrieMap", ptr %this1, i32 0, i32 2
  %8 = load ptr, ptr %fNodes11, align 8
  call void @uprv_free_75(ptr noundef %8)
  %9 = load ptr, ptr %newNodes, align 8
  %fNodes12 = getelementptr inbounds %"class.icu_75::TextTrieMap", ptr %this1, i32 0, i32 2
  store ptr %9, ptr %fNodes12, align 8
  %10 = load i32, ptr %newCapacity, align 4
  %fNodesCapacity13 = getelementptr inbounds %"class.icu_75::TextTrieMap", ptr %this1, i32 0, i32 3
  store i32 %10, ptr %fNodesCapacity13, align 8
  store i8 1, ptr %retval, align 1
  br label %return

return:                                           ; preds = %do.end, %if.then7, %if.then
  %11 = load i8, ptr %retval, align 1
  ret i8 %11
}