; Function Attrs: mustprogress uwtable
define noundef signext i8 @_ZN6icu_7511TextTrieMap9growNodesEv(ptr nocapture noundef nonnull align 8 dereferenceable(56) %this) local_unnamed_addr #1 align 2 {
entry:
  %fNodesCapacity = getelementptr inbounds i8, ptr %this, i64 24
  %0 = load i32, ptr %fNodesCapacity, align 8
  %cmp = icmp eq i32 %0, 65535
  br i1 %cmp, label %return, label %if.end

if.end:                                           ; preds = %entry
  %1 = tail call i32 @llvm.smin.i32(i32 %0, i32 64535)
  %spec.store.select = add nsw i32 %1, 1000
  %conv = sext i32 %spec.store.select to i64
  %mul = shl nsw i64 %conv, 4
  %call = tail call noalias ptr @uprv_malloc_75(i64 noundef %mul) #21
  %cmp6 = icmp eq ptr %call, null
  br i1 %cmp6, label %return, label %do.body

do.body:                                          ; preds = %if.end
  %fNodes = getelementptr inbounds i8, ptr %this, i64 16
  %2 = load ptr, ptr %fNodes, align 8
  %fNodesCount = getelementptr inbounds i8, ptr %this, i64 28
  %3 = load i32, ptr %fNodesCount, align 4
  %conv9 = sext i32 %3 to i64
  %mul10 = shl nsw i64 %conv9, 4
  tail call void @llvm.memcpy.p0.p0.i64(ptr nonnull align 8 %call, ptr align 8 %2, i64 %mul10, i1 false)
  tail call void @uprv_free_75(ptr noundef %2)
  store ptr %call, ptr %fNodes, align 8
  store i32 %spec.store.select, ptr %fNodesCapacity, align 8
  br label %return

return:                                           ; preds = %if.end, %entry, %do.body
  %retval.0 = phi i8 [ 1, %do.body ], [ 0, %entry ], [ 0, %if.end ]
  ret i8 %retval.0
}